; ModuleID = '31/124.c'
source_filename = "31/124.c"
target datalayout = "e-m:e-p270:32:32-p271:32:32-p272:64:64-i64:64-f80:128-n8:16:32:64-S128"
target triple = "x86_64-pc-linux-gnu"

%struct.student = type { [1000 x i8], %struct.student* }

@.str = private unnamed_addr constant [4 x i8] c"end\00", align 1
@.str.1 = private unnamed_addr constant [4 x i8] c"%s\0A\00", align 1

; Function Attrs: noinline nounwind uwtable
define dso_local i32 @main() #0 {
  %1 = alloca i32, align 4
  %2 = alloca %struct.student*, align 8
  %3 = alloca %struct.student*, align 8
  %4 = alloca %struct.student*, align 8
  %5 = alloca %struct.student*, align 8
  store i32 0, i32* %1, align 4
  %6 = call noalias i8* @malloc(i64 1008) #4
  %7 = bitcast i8* %6 to %struct.student*
  store %struct.student* %7, %struct.student** %3, align 8
  %8 = load %struct.student*, %struct.student** %3, align 8
  %9 = getelementptr inbounds %struct.student, %struct.student* %8, i32 0, i32 0
  %10 = getelementptr inbounds [1000 x i8], [1000 x i8]* %9, i64 0, i64 0
  %11 = call i32 (i8*, ...) bitcast (i32 (...)* @gets to i32 (i8*, ...)*)(i8* %10)
  %12 = load %struct.student*, %struct.student** %3, align 8
  %13 = getelementptr inbounds %struct.student, %struct.student* %12, i32 0, i32 1
  store %struct.student* null, %struct.student** %13, align 8
  %14 = load %struct.student*, %struct.student** %3, align 8
  %15 = getelementptr inbounds %struct.student, %struct.student* %14, i32 0, i32 0
  %16 = getelementptr inbounds [1000 x i8], [1000 x i8]* %15, i64 0, i64 0
  %17 = call i32 @strcmp(i8* %16, i8* getelementptr inbounds ([4 x i8], [4 x i8]* @.str, i64 0, i64 0)) #5
  %18 = icmp eq i32 %17, 0
  br i1 %18, label %19, label %22

19:                                               ; preds = %0
  %20 = load %struct.student*, %struct.student** %3, align 8
  %21 = bitcast %struct.student* %20 to i8*
  call void @free(i8* %21) #4
  store %struct.student* null, %struct.student** %4, align 8
  br label %50

22:                                               ; preds = %0
  %23 = load %struct.student*, %struct.student** %3, align 8
  store %struct.student* %23, %struct.student** %4, align 8
  %24 = load %struct.student*, %struct.student** %3, align 8
  store %struct.student* %24, %struct.student** %2, align 8
  br label %25

25:                                               ; preds = %22, %48
  %26 = call noalias i8* @malloc(i64 1008) #4
  %27 = bitcast i8* %26 to %struct.student*
  store %struct.student* %27, %struct.student** %3, align 8
  %28 = load %struct.student*, %struct.student** %3, align 8
  %29 = getelementptr inbounds %struct.student, %struct.student* %28, i32 0, i32 0
  %30 = getelementptr inbounds [1000 x i8], [1000 x i8]* %29, i64 0, i64 0
  %31 = call i32 (i8*, ...) bitcast (i32 (...)* @gets to i32 (i8*, ...)*)(i8* %30)
  %32 = load %struct.student*, %struct.student** %3, align 8
  %33 = getelementptr inbounds %struct.student, %struct.student* %32, i32 0, i32 1
  store %struct.student* null, %struct.student** %33, align 8
  %34 = load %struct.student*, %struct.student** %3, align 8
  %35 = getelementptr inbounds %struct.student, %struct.student* %34, i32 0, i32 0
  %36 = getelementptr inbounds [1000 x i8], [1000 x i8]* %35, i64 0, i64 0
  %37 = call i32 @strcmp(i8* %36, i8* getelementptr inbounds ([4 x i8], [4 x i8]* @.str, i64 0, i64 0)) #5
  %38 = icmp eq i32 %37, 0
  br i1 %38, label %39, label %42

39:                                               ; preds = %25
  %40 = load %struct.student*, %struct.student** %3, align 8
  %41 = bitcast %struct.student* %40 to i8*
  call void @free(i8* %41) #4
  br label %49

42:                                               ; preds = %25
  %43 = load %struct.student*, %struct.student** %3, align 8
  store %struct.student* %43, %struct.student** %4, align 8
  %44 = load %struct.student*, %struct.student** %2, align 8
  %45 = load %struct.student*, %struct.student** %3, align 8
  %46 = getelementptr inbounds %struct.student, %struct.student* %45, i32 0, i32 1
  store %struct.student* %44, %struct.student** %46, align 8
  %47 = load %struct.student*, %struct.student** %3, align 8
  store %struct.student* %47, %struct.student** %2, align 8
  br label %48

48:                                               ; preds = %42
  br label %25

49:                                               ; preds = %39
  br label %50

50:                                               ; preds = %49, %19
  %51 = load %struct.student*, %struct.student** %4, align 8
  store %struct.student* %51, %struct.student** %5, align 8
  br label %52

52:                                               ; preds = %55, %50
  %53 = load %struct.student*, %struct.student** %5, align 8
  %54 = icmp ne %struct.student* %53, null
  br i1 %54, label %55, label %63

55:                                               ; preds = %52
  %56 = load %struct.student*, %struct.student** %5, align 8
  %57 = getelementptr inbounds %struct.student, %struct.student* %56, i32 0, i32 0
  %58 = getelementptr inbounds [1000 x i8], [1000 x i8]* %57, i64 0, i64 0
  %59 = call i32 (i8*, ...) @printf(i8* getelementptr inbounds ([4 x i8], [4 x i8]* @.str.1, i64 0, i64 0), i8* %58)
  %60 = load %struct.student*, %struct.student** %5, align 8
  %61 = getelementptr inbounds %struct.student, %struct.student* %60, i32 0, i32 1
  %62 = load %struct.student*, %struct.student** %61, align 8
  store %struct.student* %62, %struct.student** %5, align 8
  br label %52

63:                                               ; preds = %52
  ret i32 0
}

; Function Attrs: nounwind
declare dso_local noalias i8* @malloc(i64) #1

declare dso_local i32 @gets(...) #2

; Function Attrs: nounwind readonly
declare dso_local i32 @strcmp(i8*, i8*) #3

; Function Attrs: nounwind
declare dso_local void @free(i8*) #1

declare dso_local i32 @printf(i8*, ...) #2


!llvm.module.flags = !{!0}
!llvm.ident = !{!1}

!0 = !{i32 1, !"wchar_size", i32 4}
!1 = !{!"clang version 10.0.0-4ubuntu1 "}
